target datalayout = "e-m:e-p270:32:32-p271:32:32-p272:64:64-i64:64-i128:128-f80:128-n8:16:32:64-S128"
target triple = "x86_64-pc-linux-gnu"

%union.ListCell = type { ptr }
%struct.Node = type { i32 }
%struct.Expr = type { i32 }
%struct.Aggref = type { %struct.Expr, i32, i32, i32, i32, i32, ptr, ptr, ptr, ptr, ptr, ptr, i8, i8, i8, i8, i32, i32, i32, i32, i32 }

; Function Attrs: inlinehint nounwind uwtable
define internal ptr @newNode(i64 noundef %0, i32 noundef %1) #2 {
  %3 = alloca i64, align 8
  %4 = alloca i32, align 4
  %5 = alloca ptr, align 8
  store i64 %0, ptr %3, align 8
  store i32 %1, ptr %4, align 4
  call void @llvm.lifetime.start.p0(i64 8, ptr %5) #8
  %6 = load i64, ptr %3, align 8
  %7 = call ptr @palloc0(i64 noundef %6)
  store ptr %7, ptr %5, align 8
  %8 = load i32, ptr %4, align 4
  %9 = load ptr, ptr %5, align 8
  %10 = getelementptr inbounds nuw %struct.Node, ptr %9, i32 0, i32 0
  store i32 %8, ptr %10, align 4
  %11 = load ptr, ptr %5, align 8
  call void @llvm.lifetime.end.p0(i64 8, ptr %5) #8
  ret ptr %11
}

; Function Attrs: nounwind uwtable
define internal ptr @convert_combining_aggrefs(ptr noundef %0, ptr noundef %1) #0 {
  %3 = alloca ptr, align 8
  %4 = alloca ptr, align 8
  %5 = alloca ptr, align 8
  %6 = alloca ptr, align 8
  %7 = alloca ptr, align 8
  %8 = alloca ptr, align 8
  %9 = alloca %union.ListCell, align 8
  store ptr %0, ptr %4, align 8
  store ptr %1, ptr %5, align 8
  %10 = load ptr, ptr %4, align 8
  %11 = icmp eq ptr %10, null
  br i1 %11, label %12, label %13

12:                                               ; preds = %2
  store ptr null, ptr %3, align 8
  br label %53

13:                                               ; preds = %2
  %14 = load ptr, ptr %4, align 8
  %15 = getelementptr inbounds nuw %struct.Node, ptr %14, i32 0, i32 0
  %16 = load i32, ptr %15, align 4
  %17 = icmp eq i32 %16, 9
  br i1 %17, label %18, label %49

18:                                               ; preds = %13
  call void @llvm.lifetime.start.p0(i64 8, ptr %6) #8
  %19 = load ptr, ptr %4, align 8
  store ptr %19, ptr %6, align 8
  call void @llvm.lifetime.start.p0(i64 8, ptr %7) #8
  call void @llvm.lifetime.start.p0(i64 8, ptr %8) #8
  %20 = call ptr @newNode(i64 noundef 96, i32 noundef 9)
  store ptr %20, ptr %7, align 8
  %21 = load ptr, ptr %7, align 8
  %22 = load ptr, ptr %6, align 8
  call void @llvm.memcpy.p0.p0.i64(ptr align 8 %21, ptr align 8 %22, i64 96, i1 false)
  %23 = load ptr, ptr %7, align 8
  %24 = getelementptr inbounds nuw %struct.Aggref, ptr %23, i32 0, i32 8
  store ptr null, ptr %24, align 8
  %25 = load ptr, ptr %7, align 8
  %26 = getelementptr inbounds nuw %struct.Aggref, ptr %25, i32 0, i32 11
  store ptr null, ptr %26, align 8
  %27 = load ptr, ptr %7, align 8
  %28 = call ptr @copyObjectImpl(ptr noundef %27)
  store ptr %28, ptr %8, align 8
  %29 = load ptr, ptr %6, align 8
  %30 = getelementptr inbounds nuw %struct.Aggref, ptr %29, i32 0, i32 8
  %31 = load ptr, ptr %30, align 8
  %32 = load ptr, ptr %7, align 8
  %33 = getelementptr inbounds nuw %struct.Aggref, ptr %32, i32 0, i32 8
  store ptr %31, ptr %33, align 8
  %34 = load ptr, ptr %6, align 8
  %35 = getelementptr inbounds nuw %struct.Aggref, ptr %34, i32 0, i32 11
  %36 = load ptr, ptr %35, align 8
  %37 = load ptr, ptr %7, align 8
  %38 = getelementptr inbounds nuw %struct.Aggref, ptr %37, i32 0, i32 11
  store ptr %36, ptr %38, align 8
  %39 = load ptr, ptr %7, align 8
  call void @mark_partial_aggref(ptr noundef %39, i32 noundef 6)
  %40 = load ptr, ptr %7, align 8
  %41 = call ptr @makeTargetEntry(ptr noundef %40, i16 noundef signext 1, ptr noundef null, i1 noundef zeroext false)
  store ptr %41, ptr %9, align 8
  %42 = getelementptr inbounds nuw %union.ListCell, ptr %9, i32 0, i32 0
  %43 = load ptr, ptr %42, align 8
  %44 = call ptr @list_make1_impl(i32 noundef 1, ptr %43)
  %45 = load ptr, ptr %8, align 8
  %46 = getelementptr inbounds nuw %struct.Aggref, ptr %45, i32 0, i32 8
  store ptr %44, ptr %46, align 8
  %47 = load ptr, ptr %8, align 8
  call void @mark_partial_aggref(ptr noundef %47, i32 noundef 9)
  %48 = load ptr, ptr %8, align 8
  store ptr %48, ptr %3, align 8
  call void @llvm.lifetime.end.p0(i64 8, ptr %8) #8
  call void @llvm.lifetime.end.p0(i64 8, ptr %7) #8
  call void @llvm.lifetime.end.p0(i64 8, ptr %6) #8
  br label %53

49:                                               ; preds = %13
  %50 = load ptr, ptr %4, align 8
  %51 = load ptr, ptr %5, align 8
  %52 = call ptr @expression_tree_mutator_impl(ptr noundef %50, ptr noundef @convert_combining_aggrefs, ptr noundef %51)
  store ptr %52, ptr %3, align 8
  br label %53

53:                                               ; preds = %49, %18, %12
  %54 = load ptr, ptr %3, align 8
  ret ptr %54
}