; Function Attrs: nounwind uwtable
define internal ptr @convert_combining_aggrefs(ptr noundef %0, ptr noundef %1) #0 {
  %3 = icmp eq ptr %0, null
  br i1 %3, label %21, label %4

4:                                                ; preds = %2
  %5 = load i32, ptr %0, align 4
  %6 = icmp eq i32 %5, 9
  br i1 %6, label %7, label %19

7:                                                ; preds = %4
  %8 = tail call noundef ptr @palloc0(i64 noundef 96) #8
  store i32 9, ptr %8, align 4
  tail call void @llvm.memcpy.p0.p0.i64(ptr noundef nonnull align 8 dereferenceable(96) %8, ptr noundef nonnull align 8 dereferenceable(96) %0, i64 96, i1 false)
  %9 = getelementptr inbounds nuw i8, ptr %8, i64 40
  store ptr null, ptr %9, align 8
  %10 = getelementptr inbounds nuw i8, ptr %8, i64 64
  store ptr null, ptr %10, align 8
  %11 = tail call ptr @copyObjectImpl(ptr noundef nonnull %8) #8
  %12 = getelementptr inbounds nuw i8, ptr %0, i64 40
  %13 = load ptr, ptr %12, align 8
  store ptr %13, ptr %9, align 8
  %14 = getelementptr inbounds nuw i8, ptr %0, i64 64
  %15 = load ptr, ptr %14, align 8
  store ptr %15, ptr %10, align 8
  tail call void @mark_partial_aggref(ptr noundef nonnull %8, i32 noundef 6) #8
  %16 = tail call ptr @makeTargetEntry(ptr noundef nonnull %8, i16 noundef signext 1, ptr noundef null, i1 noundef zeroext false) #8
  %17 = tail call ptr @list_make1_impl(i32 noundef 1, ptr %16) #8
  %18 = getelementptr inbounds nuw i8, ptr %11, i64 40
  store ptr %17, ptr %18, align 8
  tail call void @mark_partial_aggref(ptr noundef %11, i32 noundef 9) #8
  br label %21

19:                                               ; preds = %4
  %20 = tail call ptr @expression_tree_mutator_impl(ptr noundef nonnull %0, ptr noundef nonnull @convert_combining_aggrefs, ptr noundef %1) #8
  br label %21

21:                                               ; preds = %2, %19, %7
  %.0 = phi ptr [ %11, %7 ], [ %20, %19 ], [ null, %2 ]
  ret ptr %.0
}